target datalayout = "e-m:e-p270:32:32-p271:32:32-p272:64:64-i64:64-i128:128-f80:128-n8:16:32:64-S128"
target triple = "x86_64-pc-linux-gnu"

%struct.tMPI_Thread_key_t = type { %struct.tMPI_Atomic, ptr }
%struct.tMPI_Atomic = type { i32, [60 x i8] }
%struct.tmpi_comm_ = type { %struct.tmpi_group_, %struct.tMPI_Barrier_t, ptr, ptr, i32, ptr, ptr, ptr, ptr, %struct.tMPI_Thread_mutex_t, %struct.tMPI_Thread_cond_t, %struct.tMPI_Thread_cond_t, ptr, ptr, ptr, ptr, ptr, ptr, %struct.tMPI_Atomic }
%struct.tmpi_group_ = type { i32, ptr }
%struct.tMPI_Barrier_t = type { %struct.tMPI_Atomic, i32, %struct.tMPI_Atomic }
%struct.tMPI_Thread_mutex_t = type { %struct.tMPI_Atomic, ptr }
%struct.tMPI_Thread_cond_t = type { %struct.tMPI_Atomic, ptr }

@threads = global ptr null, align 8
@id_key = global %struct.tMPI_Thread_key_t zeroinitializer, align 8
@TMPI_COMM_WORLD = external global ptr, align 8

; Function Attrs: mustprogress uwtable
define noundef i32 @_Z14tMPI_Is_masterv() #0 {
  %1 = alloca i32, align 4
  %2 = alloca %struct.tMPI_Thread_key_t, align 8
  %3 = load ptr, ptr @TMPI_COMM_WORLD, align 8, !tbaa !3
  %4 = icmp ne ptr %3, null
  br i1 %4, label %5, label %11

5:                                                ; preds = %0
  %6 = load ptr, ptr @TMPI_COMM_WORLD, align 8, !tbaa !3
  %7 = getelementptr inbounds nuw %struct.tmpi_comm_, ptr %6, i32 0, i32 0
  %8 = getelementptr inbounds nuw %struct.tmpi_group_, ptr %7, i32 0, i32 0
  %9 = load i32, ptr %8, align 8, !tbaa !8
  %10 = icmp eq i32 %9, 0
  br i1 %10, label %11, label %12

11:                                               ; preds = %5, %0
  store i32 1, ptr %1, align 4
  br label %17

12:                                               ; preds = %5
  call void @llvm.memcpy.p0.p0.i64(ptr align 8 %2, ptr align 8 @id_key, i64 72, i1 false), !tbaa.struct !29
  %13 = call noundef ptr @_Z23tMPI_Thread_getspecific17tMPI_Thread_key_t(ptr noundef byval(%struct.tMPI_Thread_key_t) align 8 %2)
  %14 = load ptr, ptr @threads, align 8, !tbaa !34
  %15 = icmp eq ptr %13, %14
  %16 = zext i1 %15 to i32
  store i32 %16, ptr %1, align 4
  br label %17

17:                                               ; preds = %12, %11
  %18 = load i32, ptr %1, align 4
  ret i32 %18
}