; Function Attrs: mustprogress uwtable
define noundef range(i32 0, 2) i32 @_Z14tMPI_Is_masterv() local_unnamed_addr #0 {
  %1 = load ptr, ptr @TMPI_COMM_WORLD, align 8, !tbaa !3
  %.not = icmp eq ptr %1, null
  br i1 %.not, label %10, label %2

2:                                                ; preds = %0
  %3 = load i32, ptr %1, align 8, !tbaa !8
  %4 = icmp eq i32 %3, 0
  br i1 %4, label %10, label %5

5:                                                ; preds = %2
  %6 = tail call noundef ptr @_Z23tMPI_Thread_getspecific17tMPI_Thread_key_t(ptr noundef nonnull byval(%struct.tMPI_Thread_key_t) align 8 @id_key)
  %7 = load ptr, ptr @threads, align 8, !tbaa !29
  %8 = icmp eq ptr %6, %7
  %9 = zext i1 %8 to i32
  br label %10

10:                                               ; preds = %0, %2, %5
  %.0 = phi i32 [ %9, %5 ], [ 1, %2 ], [ 1, %0 ]
  ret i32 %.0
}